; Function Attrs: nounwind uwtable
define dso_local zeroext i1 @vu_queue_avail_bytes(ptr noundef %0, ptr noundef captures(none) %1, i32 noundef %2, i32 noundef %3) local_unnamed_addr #3 {
  %5 = alloca i32, align 4
  %6 = alloca i32, align 4
  call void @llvm.lifetime.start.p0(i64 4, ptr nonnull %5) #21
  store i32 0, ptr %5, align 4, !annotation !4
  call void @llvm.lifetime.start.p0(i64 4, ptr nonnull %6) #21
  store i32 0, ptr %6, align 4, !annotation !4
  call void @vu_queue_get_avail_bytes(ptr noundef %0, ptr noundef %1, ptr noundef nonnull %5, ptr noundef nonnull %6, i32 noundef %2, i32 noundef %3)
  %7 = load i32, ptr %5, align 4
  %8 = icmp ule i32 %2, %7
  %9 = load i32, ptr %6, align 4
  %10 = icmp ule i32 %3, %9
  %11 = select i1 %8, i1 %10, i1 false
  call void @llvm.lifetime.end.p0(i64 4, ptr nonnull %6) #21
  call void @llvm.lifetime.end.p0(i64 4, ptr nonnull %5) #21
  ret i1 %11
}